target datalayout = "e-m:e-p270:32:32-p271:32:32-p272:64:64-i64:64-i128:128-f80:128-n8:16:32:64-S128"
target triple = "x86_64-unknown-linux-gnu"

%"class.llvh::DenseMap" = type <{ ptr, i32, i32, i32, [4 x i8] }>
%"class.hermes::parser::JSLexer" = type { ptr, ptr, i32, %"class.std::unique_ptr", ptr, ptr, i8, i8, i8, i8, [4 x i8], %"class.hermes::parser::Token", %"class.llvh::SMLoc", ptr, ptr, ptr, i8, %"class.llvh::SmallString", %"class.llvh::SmallString", [46 x ptr], %"class.std::vector", %"class.std::vector.2" }
%"class.std::unique_ptr" = type { %"struct.std::__uniq_ptr_data" }
%"struct.std::__uniq_ptr_data" = type { %"class.std::__uniq_ptr_impl" }
%"class.std::__uniq_ptr_impl" = type { %"class.std::tuple" }
%"class.std::tuple" = type { %"struct.std::_Tuple_impl" }
%"struct.std::_Tuple_impl" = type { %"struct.std::_Head_base.1" }
%"struct.std::_Head_base.1" = type { ptr }
%"class.hermes::parser::Token" = type <{ i32, [4 x i8], %"class.llvh::SMRange", double, ptr, ptr, ptr, ptr, i8, [7 x i8] }>
%"class.llvh::SMRange" = type { %"class.llvh::SMLoc", %"class.llvh::SMLoc" }
%"class.llvh::SMLoc" = type { ptr }
%"class.llvh::SmallString" = type { %"class.llvh::SmallVector" }
%"class.llvh::SmallVector" = type { %"class.llvh::SmallVectorImpl", %"struct.llvh::SmallVectorStorage" }
%"class.llvh::SmallVectorImpl" = type { %"class.llvh::SmallVectorTemplateBase" }
%"class.llvh::SmallVectorTemplateBase" = type { %"class.llvh::SmallVectorTemplateCommon" }
%"class.llvh::SmallVectorTemplateCommon" = type { %"class.llvh::SmallVectorBase" }
%"class.llvh::SmallVectorBase" = type { ptr, i32, i32 }
%"struct.llvh::SmallVectorStorage" = type { [256 x %"struct.llvh::AlignedCharArrayUnion"] }
%"struct.llvh::AlignedCharArrayUnion" = type { %"struct.llvh::AlignedCharArray" }
%"struct.llvh::AlignedCharArray" = type { [1 x i8] }
%"class.std::vector" = type { %"struct.std::_Vector_base" }
%"struct.std::_Vector_base" = type { %"struct.std::_Vector_base<hermes::parser::StoredComment, std::allocator<hermes::parser::StoredComment>>::_Vector_impl" }
%"struct.std::_Vector_base<hermes::parser::StoredComment, std::allocator<hermes::parser::StoredComment>>::_Vector_impl" = type { %"struct.std::_Vector_base<hermes::parser::StoredComment, std::allocator<hermes::parser::StoredComment>>::_Vector_impl_data" }
%"struct.std::_Vector_base<hermes::parser::StoredComment, std::allocator<hermes::parser::StoredComment>>::_Vector_impl_data" = type { ptr, ptr, ptr }
%"class.std::vector.2" = type { %"struct.std::_Vector_base.3" }
%"struct.std::_Vector_base.3" = type { %"struct.std::_Vector_base<hermes::parser::StoredToken, std::allocator<hermes::parser::StoredToken>>::_Vector_impl" }
%"struct.std::_Vector_base<hermes::parser::StoredToken, std::allocator<hermes::parser::StoredToken>>::_Vector_impl" = type { %"struct.std::_Vector_base<hermes::parser::StoredToken, std::allocator<hermes::parser::StoredToken>>::_Vector_impl_data" }
%"struct.std::_Vector_base<hermes::parser::StoredToken, std::allocator<hermes::parser::StoredToken>>::_Vector_impl_data" = type { ptr, ptr, ptr }
%"class.llvh::StringRef" = type { ptr, i64 }
%"class.hermes::SourceErrorManager" = type { %"class.llvh::SourceMgr", %"struct.hermes::SourceErrorOutputOptions", %"class.std::shared_ptr", %"struct.hermes::SourceErrorManager::FindLineCache", %"struct.hermes::StringSetVector", [4 x i32], i32, i8, %"class.llvh::SmallBitVector", %"class.llvh::SmallBitVector", %"class.hermes::OptValue", i8, [7 x i8], %"class.llvh::DenseMap.20", %"class.llvh::DenseMap.20", i32, ptr, %"class.std::vector.23", %"class.std::vector.28" }
%"class.llvh::SourceMgr" = type { %"class.std::vector.7", %"class.std::map", i32, %"class.std::vector.15", ptr, ptr }
%"class.std::vector.7" = type { %"struct.std::_Vector_base.8" }
%"struct.std::_Vector_base.8" = type { %"struct.std::_Vector_base<llvh::SourceMgr::SrcBuffer, std::allocator<llvh::SourceMgr::SrcBuffer>>::_Vector_impl" }
%"struct.std::_Vector_base<llvh::SourceMgr::SrcBuffer, std::allocator<llvh::SourceMgr::SrcBuffer>>::_Vector_impl" = type { %"struct.std::_Vector_base<llvh::SourceMgr::SrcBuffer, std::allocator<llvh::SourceMgr::SrcBuffer>>::_Vector_impl_data" }
%"struct.std::_Vector_base<llvh::SourceMgr::SrcBuffer, std::allocator<llvh::SourceMgr::SrcBuffer>>::_Vector_impl_data" = type { ptr, ptr, ptr }
%"class.std::map" = type { %"class.std::_Rb_tree" }
%"class.std::_Rb_tree" = type { %"struct.std::_Rb_tree<const char *, std::pair<const char *const, unsigned int>, std::_Select1st<std::pair<const char *const, unsigned int>>, std::less<const char *>>::_Rb_tree_impl" }
%"struct.std::_Rb_tree<const char *, std::pair<const char *const, unsigned int>, std::_Select1st<std::pair<const char *const, unsigned int>>, std::less<const char *>>::_Rb_tree_impl" = type { %"struct.std::_Rb_tree_key_compare", %"struct.std::_Rb_tree_header" }
%"struct.std::_Rb_tree_key_compare" = type { %"struct.std::less" }
%"struct.std::less" = type { i8 }
%"struct.std::_Rb_tree_header" = type { %"struct.std::_Rb_tree_node_base", i64 }
%"struct.std::_Rb_tree_node_base" = type { i32, ptr, ptr, ptr }
%"class.std::vector.15" = type { %"struct.std::_Vector_base.16" }
%"struct.std::_Vector_base.16" = type { %"struct.std::_Vector_base<std::__cxx11::basic_string<char>, std::allocator<std::__cxx11::basic_string<char>>>::_Vector_impl" }
%"struct.std::_Vector_base<std::__cxx11::basic_string<char>, std::allocator<std::__cxx11::basic_string<char>>>::_Vector_impl" = type { %"struct.std::_Vector_base<std::__cxx11::basic_string<char>, std::allocator<std::__cxx11::basic_string<char>>>::_Vector_impl_data" }
%"struct.std::_Vector_base<std::__cxx11::basic_string<char>, std::allocator<std::__cxx11::basic_string<char>>>::_Vector_impl_data" = type { ptr, ptr, ptr }
%"struct.hermes::SourceErrorOutputOptions" = type { i8, i64 }
%"class.std::shared_ptr" = type { %"class.std::__shared_ptr" }
%"class.std::__shared_ptr" = type { ptr, %"class.std::__shared_count" }
%"class.std::__shared_count" = type { ptr }
%"struct.hermes::SourceErrorManager::FindLineCache" = type { i32, i32, %"class.llvh::StringRef", %"class.llvh::StringRef" }
%"struct.hermes::StringSetVector" = type { %"class.std::deque", %"class.llvh::DenseMap" }
%"class.std::deque" = type { %"class.std::_Deque_base" }
%"class.std::_Deque_base" = type { %"struct.std::_Deque_base<std::__cxx11::basic_string<char>, std::allocator<std::__cxx11::basic_string<char>>>::_Deque_impl" }
%"struct.std::_Deque_base<std::__cxx11::basic_string<char>, std::allocator<std::__cxx11::basic_string<char>>>::_Deque_impl" = type { %"struct.std::_Deque_base<std::__cxx11::basic_string<char>, std::allocator<std::__cxx11::basic_string<char>>>::_Deque_impl_data" }
%"struct.std::_Deque_base<std::__cxx11::basic_string<char>, std::allocator<std::__cxx11::basic_string<char>>>::_Deque_impl_data" = type { ptr, i64, %"struct.std::_Deque_iterator", %"struct.std::_Deque_iterator" }
%"struct.std::_Deque_iterator" = type { ptr, ptr, ptr, ptr }
%"class.llvh::SmallBitVector" = type { i64 }
%"class.hermes::OptValue" = type <{ i32, i8, [3 x i8] }>
%"class.llvh::DenseMap.20" = type <{ ptr, i32, i32, i32, [4 x i8] }>
%"class.std::vector.23" = type { %"struct.std::_Vector_base.24" }
%"struct.std::_Vector_base.24" = type { %"struct.std::_Vector_base<hermes::SourceErrorManager::BufferedMessage, std::allocator<hermes::SourceErrorManager::BufferedMessage>>::_Vector_impl" }
%"struct.std::_Vector_base<hermes::SourceErrorManager::BufferedMessage, std::allocator<hermes::SourceErrorManager::BufferedMessage>>::_Vector_impl" = type { %"struct.std::_Vector_base<hermes::SourceErrorManager::BufferedMessage, std::allocator<hermes::SourceErrorManager::BufferedMessage>>::_Vector_impl_data" }
%"struct.std::_Vector_base<hermes::SourceErrorManager::BufferedMessage, std::allocator<hermes::SourceErrorManager::BufferedMessage>>::_Vector_impl_data" = type { ptr, ptr, ptr }
%"class.std::vector.28" = type { %"struct.std::_Vector_base.29" }
%"struct.std::_Vector_base.29" = type { %"struct.std::_Vector_base<hermes::SourceErrorManager::MessageData, std::allocator<hermes::SourceErrorManager::MessageData>>::_Vector_impl" }
%"struct.std::_Vector_base<hermes::SourceErrorManager::MessageData, std::allocator<hermes::SourceErrorManager::MessageData>>::_Vector_impl" = type { %"struct.std::_Vector_base<hermes::SourceErrorManager::MessageData, std::allocator<hermes::SourceErrorManager::MessageData>>::_Vector_impl_data" }
%"struct.std::_Vector_base<hermes::SourceErrorManager::MessageData, std::allocator<hermes::SourceErrorManager::MessageData>>::_Vector_impl_data" = type { ptr, ptr, ptr }
%"class.llvh::Twine" = type <{ %"union.llvh::Twine::Child", %"union.llvh::Twine::Child", i8, i8, [6 x i8] }>
%"union.llvh::Twine::Child" = type { ptr }

@.str.54 = private unnamed_addr constant [34 x i8] c"octals not allowed in strict mode\00", align 1

; Function Attrs: mustprogress nounwind uwtable
define linkonce_odr hidden void @_ZN6hermes6parser7JSLexer8forceEOFEv(ptr noundef nonnull align 8 dereferenceable(1128) %this) #0 comdat align 2 {
entry:
  %this.addr = alloca ptr, align 8
  store ptr %this, ptr %this.addr, align 8
  %this1 = load ptr, ptr %this.addr, align 8
  %bufferEnd_ = getelementptr inbounds %"class.hermes::parser::JSLexer", ptr %this1, i32 0, i32 15
  %0 = load ptr, ptr %bufferEnd_, align 8
  %curCharPtr_ = getelementptr inbounds %"class.hermes::parser::JSLexer", ptr %this1, i32 0, i32 14
  store ptr %0, ptr %curCharPtr_, align 8
  ret void
}

; Function Attrs: mustprogress nounwind uwtable
define linkonce_odr hidden noundef zeroext i1 @_ZNK6hermes18SourceErrorManager19isErrorLimitReachedEv(ptr noundef nonnull align 8 dereferenceable(464) %this) #0 comdat align 2 {
entry:
  %this.addr = alloca ptr, align 8
  store ptr %this, ptr %this.addr, align 8
  %this1 = load ptr, ptr %this.addr, align 8
  %errorLimitReached_ = getelementptr inbounds %"class.hermes::SourceErrorManager", ptr %this1, i32 0, i32 7
  %0 = load i8, ptr %errorLimitReached_, align 4
  %tobool = trunc i8 %0 to i1
  ret i1 %tobool
}

; Function Attrs: mustprogress nounwind uwtable
define linkonce_odr hidden void @_ZN6hermes18SourceErrorManager5errorEN4llvh5SMLocERKNS1_5TwineENS_9SubsystemE(ptr noundef nonnull align 8 dereferenceable(464) %this, ptr %loc.coerce, ptr noundef nonnull align 8 dereferenceable(18) %msg, i32 noundef %subsystem) #0 comdat align 2 {
entry:
  %loc = alloca %"class.llvh::SMLoc", align 8
  %this.addr = alloca ptr, align 8
  %msg.addr = alloca ptr, align 8
  %subsystem.addr = alloca i32, align 4
  %agg.tmp = alloca %"class.llvh::SMLoc", align 8
  %coerce.dive = getelementptr inbounds %"class.llvh::SMLoc", ptr %loc, i32 0, i32 0
  store ptr %loc.coerce, ptr %coerce.dive, align 8
  store ptr %this, ptr %this.addr, align 8
  store ptr %msg, ptr %msg.addr, align 8
  store i32 %subsystem, ptr %subsystem.addr, align 4
  %this1 = load ptr, ptr %this.addr, align 8
  call void @llvm.memcpy.p0.p0.i64(ptr align 8 %agg.tmp, ptr align 8 %loc, i64 8, i1 false)
  %0 = load ptr, ptr %msg.addr, align 8
  %1 = load i32, ptr %subsystem.addr, align 4
  %coerce.dive2 = getelementptr inbounds %"class.llvh::SMLoc", ptr %agg.tmp, i32 0, i32 0
  %2 = load ptr, ptr %coerce.dive2, align 8
  call void @_ZN6hermes18SourceErrorManager7messageENS0_8DiagKindEN4llvh5SMLocERKNS2_5TwineENS_9SubsystemE(ptr noundef nonnull align 8 dereferenceable(464) %this1, i32 noundef 0, ptr %2, ptr noundef nonnull align 8 dereferenceable(18) %0, i32 noundef %1)
  ret void
}

; Function Attrs: mustprogress nounwind uwtable
define linkonce_odr hidden void @_ZN4llvh5SMLocC2Ev(ptr noundef nonnull align 8 dereferenceable(8) %this) unnamed_addr #0 comdat align 2 {
entry:
  %this.addr = alloca ptr, align 8
  store ptr %this, ptr %this.addr, align 8
  %this1 = load ptr, ptr %this.addr, align 8
  %Ptr = getelementptr inbounds %"class.llvh::SMLoc", ptr %this1, i32 0, i32 0
  store ptr null, ptr %Ptr, align 8
  ret void
}

; Function Attrs: mustprogress nounwind uwtable
define hidden noundef zeroext i1 @_ZN6hermes6parser7JSLexer5errorEN4llvh5SMLocERKNS2_5TwineE(ptr noundef nonnull align 8 dereferenceable(1128) %this, ptr %loc.coerce, ptr noundef nonnull align 8 dereferenceable(18) %msg) #0 align 2 {
entry:
  %retval = alloca i1, align 1
  %loc = alloca %"class.llvh::SMLoc", align 8
  %this.addr = alloca ptr, align 8
  %msg.addr = alloca ptr, align 8
  %agg.tmp = alloca %"class.llvh::SMLoc", align 8
  %coerce.dive = getelementptr inbounds %"class.llvh::SMLoc", ptr %loc, i32 0, i32 0
  store ptr %loc.coerce, ptr %coerce.dive, align 8
  store ptr %this, ptr %this.addr, align 8
  store ptr %msg, ptr %msg.addr, align 8
  %this1 = load ptr, ptr %this.addr, align 8
  %sm_ = getelementptr inbounds %"class.hermes::parser::JSLexer", ptr %this1, i32 0, i32 0
  %0 = load ptr, ptr %sm_, align 8
  call void @llvm.memcpy.p0.p0.i64(ptr align 8 %agg.tmp, ptr align 8 %loc, i64 8, i1 false)
  %1 = load ptr, ptr %msg.addr, align 8
  %coerce.dive2 = getelementptr inbounds %"class.llvh::SMLoc", ptr %agg.tmp, i32 0, i32 0
  %2 = load ptr, ptr %coerce.dive2, align 8
  call void @_ZN6hermes18SourceErrorManager5errorEN4llvh5SMLocERKNS1_5TwineENS_9SubsystemE(ptr noundef nonnull align 8 dereferenceable(464) %0, ptr %2, ptr noundef nonnull align 8 dereferenceable(18) %1, i32 noundef 1)
  %sm_3 = getelementptr inbounds %"class.hermes::parser::JSLexer", ptr %this1, i32 0, i32 0
  %3 = load ptr, ptr %sm_3, align 8
  %call = call noundef zeroext i1 @_ZNK6hermes18SourceErrorManager19isErrorLimitReachedEv(ptr noundef nonnull align 8 dereferenceable(464) %3)
  br i1 %call, label %if.end, label %if.then

if.then:                                          ; preds = %entry
  store i1 true, ptr %retval, align 1
  br label %return

if.end:                                           ; preds = %entry
  call void @_ZN6hermes6parser7JSLexer8forceEOFEv(ptr noundef nonnull align 8 dereferenceable(1128) %this1)
  store i1 false, ptr %retval, align 1
  br label %return

return:                                           ; preds = %if.end, %if.then
  %4 = load i1, ptr %retval, align 1
  ret i1 %4
}

; Function Attrs: mustprogress nounwind uwtable
define linkonce_odr hidden void @_ZN4llvh5TwineC2EPKc(ptr noundef nonnull align 8 dereferenceable(18) %this, ptr noundef %Str) unnamed_addr #0 comdat align 2 {
entry:
  %this.addr = alloca ptr, align 8
  %Str.addr = alloca ptr, align 8
  store ptr %this, ptr %this.addr, align 8
  store ptr %Str, ptr %Str.addr, align 8
  %this1 = load ptr, ptr %this.addr, align 8
  %LHSKind = getelementptr inbounds %"class.llvh::Twine", ptr %this1, i32 0, i32 2
  store i8 1, ptr %LHSKind, align 8
  %RHSKind = getelementptr inbounds %"class.llvh::Twine", ptr %this1, i32 0, i32 3
  store i8 1, ptr %RHSKind, align 1
  %0 = load ptr, ptr %Str.addr, align 8
  %arrayidx = getelementptr inbounds i8, ptr %0, i64 0
  %1 = load i8, ptr %arrayidx, align 1
  %conv = sext i8 %1 to i32
  %cmp = icmp ne i32 %conv, 0
  br i1 %cmp, label %if.then, label %if.else

if.then:                                          ; preds = %entry
  %2 = load ptr, ptr %Str.addr, align 8
  %LHS2 = getelementptr inbounds %"class.llvh::Twine", ptr %this1, i32 0, i32 0
  store ptr %2, ptr %LHS2, align 8
  %LHSKind3 = getelementptr inbounds %"class.llvh::Twine", ptr %this1, i32 0, i32 2
  store i8 3, ptr %LHSKind3, align 8
  br label %if.end

if.else:                                          ; preds = %entry
  %LHSKind4 = getelementptr inbounds %"class.llvh::Twine", ptr %this1, i32 0, i32 2
  store i8 1, ptr %LHSKind4, align 8
  br label %if.end

if.end:                                           ; preds = %if.else, %if.then
  ret void
}

; Function Attrs: mustprogress nounwind uwtable
define linkonce_odr hidden ptr @_ZN4llvh5SMLoc14getFromPointerEPKc(ptr noundef %Ptr) #0 comdat align 2 {
entry:
  %retval = alloca %"class.llvh::SMLoc", align 8
  %Ptr.addr = alloca ptr, align 8
  store ptr %Ptr, ptr %Ptr.addr, align 8
  call void @_ZN4llvh5SMLocC2Ev(ptr noundef nonnull align 8 dereferenceable(8) %retval) #7
  %0 = load ptr, ptr %Ptr.addr, align 8
  %Ptr1 = getelementptr inbounds %"class.llvh::SMLoc", ptr %retval, i32 0, i32 0
  store ptr %0, ptr %Ptr1, align 8
  %coerce.dive = getelementptr inbounds %"class.llvh::SMLoc", ptr %retval, i32 0, i32 0
  %1 = load ptr, ptr %coerce.dive, align 8
  ret ptr %1
}

; Function Attrs: mustprogress nounwind uwtable
define hidden noundef zeroext i8 @_ZN6hermes6parser7JSLexer12consumeOctalEj(ptr noundef nonnull align 8 dereferenceable(1128) %this, i32 noundef %maxLen) #0 align 2 {
entry:
  %retval = alloca i8, align 1
  %this.addr = alloca ptr, align 8
  %maxLen.addr = alloca i32, align 4
  %agg.tmp = alloca %"class.llvh::SMLoc", align 8
  %ref.tmp = alloca %"class.llvh::Twine", align 8
  %res = alloca i8, align 1
  store ptr %this, ptr %this.addr, align 8
  store i32 %maxLen, ptr %maxLen.addr, align 4
  %this1 = load ptr, ptr %this.addr, align 8
  %strictMode_ = getelementptr inbounds %"class.hermes::parser::JSLexer", ptr %this1, i32 0, i32 6
  %0 = load i8, ptr %strictMode_, align 8
  %tobool = trunc i8 %0 to i1
  br i1 %tobool, label %if.then, label %if.end5

if.then:                                          ; preds = %entry
  %curCharPtr_ = getelementptr inbounds %"class.hermes::parser::JSLexer", ptr %this1, i32 0, i32 14
  %1 = load ptr, ptr %curCharPtr_, align 8
  %add.ptr = getelementptr inbounds i8, ptr %1, i64 -1
  %call = call ptr @_ZN4llvh5SMLoc14getFromPointerEPKc(ptr noundef %add.ptr)
  %coerce.dive = getelementptr inbounds %"class.llvh::SMLoc", ptr %agg.tmp, i32 0, i32 0
  store ptr %call, ptr %coerce.dive, align 8
  call void @_ZN4llvh5TwineC2EPKc(ptr noundef nonnull align 8 dereferenceable(18) %ref.tmp, ptr noundef @.str.54)
  %coerce.dive2 = getelementptr inbounds %"class.llvh::SMLoc", ptr %agg.tmp, i32 0, i32 0
  %2 = load ptr, ptr %coerce.dive2, align 8
  %call3 = call noundef zeroext i1 @_ZN6hermes6parser7JSLexer5errorEN4llvh5SMLocERKNS2_5TwineE(ptr noundef nonnull align 8 dereferenceable(1128) %this1, ptr %2, ptr noundef nonnull align 8 dereferenceable(18) %ref.tmp)
  %lnot = xor i1 %call3, true
  br i1 %lnot, label %if.then4, label %if.end

if.then4:                                         ; preds = %if.then
  store i8 0, ptr %retval, align 1
  br label %return

if.end:                                           ; preds = %if.then
  br label %if.end5

if.end5:                                          ; preds = %if.end, %entry
  %curCharPtr_6 = getelementptr inbounds %"class.hermes::parser::JSLexer", ptr %this1, i32 0, i32 14
  %3 = load ptr, ptr %curCharPtr_6, align 8
  %incdec.ptr = getelementptr inbounds i8, ptr %3, i32 1
  store ptr %incdec.ptr, ptr %curCharPtr_6, align 8
  %4 = load i8, ptr %3, align 1
  %conv = sext i8 %4 to i32
  %sub = sub nsw i32 %conv, 48
  %conv7 = trunc i32 %sub to i8
  store i8 %conv7, ptr %res, align 1
  br label %while.cond

while.cond:                                       ; preds = %while.body, %if.end5
  %5 = load i32, ptr %maxLen.addr, align 4
  %dec = add i32 %5, -1
  store i32 %dec, ptr %maxLen.addr, align 4
  %tobool8 = icmp ne i32 %dec, 0
  br i1 %tobool8, label %land.lhs.true, label %land.end

land.lhs.true:                                    ; preds = %while.cond
  %curCharPtr_9 = getelementptr inbounds %"class.hermes::parser::JSLexer", ptr %this1, i32 0, i32 14
  %6 = load ptr, ptr %curCharPtr_9, align 8
  %7 = load i8, ptr %6, align 1
  %conv10 = sext i8 %7 to i32
  %cmp = icmp sge i32 %conv10, 48
  br i1 %cmp, label %land.rhs, label %land.end

land.rhs:                                         ; preds = %land.lhs.true
  %curCharPtr_11 = getelementptr inbounds %"class.hermes::parser::JSLexer", ptr %this1, i32 0, i32 14
  %8 = load ptr, ptr %curCharPtr_11, align 8
  %9 = load i8, ptr %8, align 1
  %conv12 = sext i8 %9 to i32
  %cmp13 = icmp sle i32 %conv12, 55
  br label %land.end

land.end:                                         ; preds = %land.rhs, %land.lhs.true, %while.cond
  %10 = phi i1 [ false, %land.lhs.true ], [ false, %while.cond ], [ %cmp13, %land.rhs ]
  br i1 %10, label %while.body, label %while.end

while.body:                                       ; preds = %land.end
  %11 = load i8, ptr %res, align 1
  %conv14 = zext i8 %11 to i32
  %shl = shl i32 %conv14, 3
  %curCharPtr_15 = getelementptr inbounds %"class.hermes::parser::JSLexer", ptr %this1, i32 0, i32 14
  %12 = load ptr, ptr %curCharPtr_15, align 8
  %incdec.ptr16 = getelementptr inbounds i8, ptr %12, i32 1
  store ptr %incdec.ptr16, ptr %curCharPtr_15, align 8
  %13 = load i8, ptr %12, align 1
  %conv17 = sext i8 %13 to i32
  %add = add nsw i32 %shl, %conv17
  %sub18 = sub nsw i32 %add, 48
  %conv19 = trunc i32 %sub18 to i8
  store i8 %conv19, ptr %res, align 1
  br label %while.cond, !llvm.loop !25

while.end:                                        ; preds = %land.end
  %14 = load i8, ptr %res, align 1
  store i8 %14, ptr %retval, align 1
  br label %return

return:                                           ; preds = %while.end, %if.then4
  %15 = load i8, ptr %retval, align 1
  ret i8 %15
}