; Function Attrs: mustprogress nounwind uwtable
define hidden noundef zeroext i8 @_ZN6hermes6parser7JSLexer12consumeOctalEj(ptr noundef nonnull align 8 captures(none) dereferenceable(1128) %this, i32 noundef %maxLen) local_unnamed_addr #1 align 2 {
entry:
  %ref.tmp = alloca %"class.llvh::Twine", align 8
  %strictMode_ = getelementptr inbounds nuw i8, ptr %this, i64 48
  %0 = load i8, ptr %strictMode_, align 8
  %tobool = trunc i8 %0 to i1
  br i1 %tobool, label %if.then, label %if.end5

if.then:                                          ; preds = %entry
  %curCharPtr_ = getelementptr inbounds nuw i8, ptr %this, i64 144
  %1 = load ptr, ptr %curCharPtr_, align 8
  %add.ptr = getelementptr inbounds i8, ptr %1, i64 -1
  %LHSKind.i = getelementptr inbounds nuw i8, ptr %ref.tmp, i64 16
  %RHSKind.i = getelementptr inbounds nuw i8, ptr %ref.tmp, i64 17
  store i8 1, ptr %RHSKind.i, align 1
  store ptr @.str.54, ptr %ref.tmp, align 8
  store i8 3, ptr %LHSKind.i, align 8
  %2 = load ptr, ptr %this, align 8
  call void @_ZN6hermes18SourceErrorManager7messageENS0_8DiagKindEN4llvh5SMLocERKNS2_5TwineENS_9SubsystemE(ptr noundef nonnull align 8 dereferenceable(464) %2, i32 noundef 0, ptr nonnull %add.ptr, ptr noundef nonnull align 8 dereferenceable(18) %ref.tmp, i32 noundef 1) #20
  %3 = load ptr, ptr %this, align 8
  %errorLimitReached_.i.i = getelementptr inbounds nuw i8, ptr %3, i64 316
  %4 = load i8, ptr %errorLimitReached_.i.i, align 4
  %tobool.i.i = trunc i8 %4 to i1
  br i1 %tobool.i.i, label %_ZN6hermes6parser7JSLexer5errorEN4llvh5SMLocERKNS2_5TwineE.exit, label %if.end5

_ZN6hermes6parser7JSLexer5errorEN4llvh5SMLocERKNS2_5TwineE.exit: ; preds = %if.then
  %bufferEnd_.i.i = getelementptr inbounds nuw i8, ptr %this, i64 152
  %5 = load ptr, ptr %bufferEnd_.i.i, align 8
  store ptr %5, ptr %curCharPtr_, align 8
  br label %return

if.end5:                                          ; preds = %if.then, %entry
  %curCharPtr_6 = getelementptr inbounds nuw i8, ptr %this, i64 144
  %6 = load ptr, ptr %curCharPtr_6, align 8
  %incdec.ptr = getelementptr inbounds nuw i8, ptr %6, i64 1
  store ptr %incdec.ptr, ptr %curCharPtr_6, align 8
  %7 = load i8, ptr %6, align 1
  %res.03 = add i8 %7, -48
  %dec4 = add i32 %maxLen, -1
  %tobool8.not5 = icmp eq i32 %dec4, 0
  br i1 %tobool8.not5, label %return, label %land.lhs.true

land.lhs.true:                                    ; preds = %if.end5, %while.body
  %dec7 = phi i32 [ %dec, %while.body ], [ %dec4, %if.end5 ]
  %res.06 = phi i8 [ %res.0, %while.body ], [ %res.03, %if.end5 ]
  %8 = phi ptr [ %incdec.ptr16, %while.body ], [ %incdec.ptr, %if.end5 ]
  %9 = load i8, ptr %8, align 1
  %10 = and i8 %9, -8
  %or.cond = icmp eq i8 %10, 48
  br i1 %or.cond, label %while.body, label %return

while.body:                                       ; preds = %land.lhs.true
  %shl = shl i8 %res.06, 3
  %incdec.ptr16 = getelementptr inbounds nuw i8, ptr %8, i64 1
  store ptr %incdec.ptr16, ptr %curCharPtr_6, align 8
  %11 = load i8, ptr %8, align 1
  %add = add i8 %11, %shl
  %res.0 = add i8 %add, -48
  %dec = add i32 %dec7, -1
  %tobool8.not = icmp eq i32 %dec, 0
  br i1 %tobool8.not, label %return, label %land.lhs.true, !llvm.loop !78

return:                                           ; preds = %land.lhs.true, %while.body, %if.end5, %_ZN6hermes6parser7JSLexer5errorEN4llvh5SMLocERKNS2_5TwineE.exit
  %retval.0 = phi i8 [ 0, %_ZN6hermes6parser7JSLexer5errorEN4llvh5SMLocERKNS2_5TwineE.exit ], [ %res.03, %if.end5 ], [ %res.06, %land.lhs.true ], [ %res.0, %while.body ]
  ret i8 %retval.0
}